target datalayout = "e-m:e-p270:32:32-p271:32:32-p272:64:64-i64:64-i128:128-f80:128-n8:16:32:64-S128"
target triple = "x86_64-pc-linux-gnu"

@_ZN4abslL11argv0_valueE = internal global ptr null, align 8

; Function Attrs: mustprogress uwtable
define dso_local void @_ZN4absl20InitializeSymbolizerEPKc(ptr noundef %0) #0 {
  %2 = alloca ptr, align 8
  store ptr %0, ptr %2, align 8, !tbaa !4
  %3 = call noundef ptr @_ZN4absl18debugging_internal11VDSOSupport4InitEv()
  %4 = load ptr, ptr @_ZN4abslL11argv0_valueE, align 8, !tbaa !4
  %5 = icmp ne ptr %4, null
  br i1 %5, label %6, label %8

6:                                                ; preds = %1
  %7 = load ptr, ptr @_ZN4abslL11argv0_valueE, align 8, !tbaa !4
  call void @free(ptr noundef %7) #17
  store ptr null, ptr @_ZN4abslL11argv0_valueE, align 8, !tbaa !4
  br label %8

8:                                                ; preds = %6, %1
  %9 = load ptr, ptr %2, align 8, !tbaa !4
  %10 = icmp ne ptr %9, null
  br i1 %10, label %11, label %20

11:                                               ; preds = %8
  %12 = load ptr, ptr %2, align 8, !tbaa !4
  %13 = getelementptr inbounds i8, ptr %12, i64 0
  %14 = load i8, ptr %13, align 1, !tbaa !9
  %15 = sext i8 %14 to i32
  %16 = icmp ne i32 %15, 0
  br i1 %16, label %17, label %20

17:                                               ; preds = %11
  %18 = load ptr, ptr %2, align 8, !tbaa !4
  %19 = call noalias ptr @strdup(ptr noundef %18) #17
  store ptr %19, ptr @_ZN4abslL11argv0_valueE, align 8, !tbaa !4
  br label %20

20:                                               ; preds = %17, %11, %8
  ret void
}