; Function Attrs: mustprogress uwtable
define dso_local void @_ZN4absl20InitializeSymbolizerEPKc(ptr noundef readonly captures(address_is_null) %0) local_unnamed_addr #0 {
  %2 = tail call noundef ptr @_ZN4absl18debugging_internal11VDSOSupport4InitEv()
  %3 = load ptr, ptr @_ZN4abslL11argv0_valueE, align 8, !tbaa !4
  %.not = icmp eq ptr %3, null
  br i1 %.not, label %5, label %4

4:                                                ; preds = %1
  tail call void @free(ptr noundef nonnull %3) #24
  store ptr null, ptr @_ZN4abslL11argv0_valueE, align 8, !tbaa !4
  br label %5

5:                                                ; preds = %4, %1
  %.not4 = icmp eq ptr %0, null
  br i1 %.not4, label %10, label %6

6:                                                ; preds = %5
  %7 = load i8, ptr %0, align 1, !tbaa !9
  %.not5 = icmp eq i8 %7, 0
  br i1 %.not5, label %10, label %8

8:                                                ; preds = %6
  %9 = tail call noalias ptr @strdup(ptr noundef nonnull %0) #24
  store ptr %9, ptr @_ZN4abslL11argv0_valueE, align 8, !tbaa !4
  br label %10

10:                                               ; preds = %8, %6, %5
  ret void
}